target datalayout = "e-m:e-p270:32:32-p271:32:32-p272:64:64-i64:64-i128:128-f80:128-n8:16:32:64-S128"
target triple = "x86_64-pc-linux-gnu"

%class.JfrVirtualMemorySegment = type { ptr, ptr, %class.ReservedSpace, %class.VirtualSpace }
%class.ReservedSpace = type <{ ptr, i64, i64, i64, i64, i8, [3 x i8], i32, i8, [7 x i8] }>
%class.VirtualSpace = type { ptr, ptr, ptr, ptr, i8, i8, ptr, ptr, ptr, ptr, ptr, ptr, i64, i64, i64 }
%class.JfrVirtualMemoryManager = type { ptr, ptr, i64, i64, i64, i64 }
%class.JfrVirtualMemory = type { ptr, ptr, ptr, ptr, ptr, i64, i64 }

; Function Attrs: mustprogress nounwind uwtable
define linkonce_odr hidden noundef ptr @_ZNK12VirtualSpace4highEv(ptr noundef nonnull align 8 dereferenceable(112) %0) #1 comdat align 2 {
  %2 = alloca ptr, align 8
  store ptr %0, ptr %2, align 8
  %3 = load ptr, ptr %2, align 8
  %4 = getelementptr inbounds %class.VirtualSpace, ptr %3, i32 0, i32 3
  %5 = load ptr, ptr %4, align 8
  ret ptr %5
}

; Function Attrs: mustprogress nounwind uwtable
define linkonce_odr hidden noundef ptr @_ZNK12VirtualSpace13high_boundaryEv(ptr noundef nonnull align 8 dereferenceable(112) %0) #1 comdat align 2 {
  %2 = alloca ptr, align 8
  store ptr %0, ptr %2, align 8
  %3 = load ptr, ptr %2, align 8
  %4 = getelementptr inbounds %class.VirtualSpace, ptr %3, i32 0, i32 1
  %5 = load ptr, ptr %4, align 8
  ret ptr %5
}

; Function Attrs: mustprogress nounwind uwtable
define linkonce_odr hidden noundef i64 @_Z13pointer_deltaPVKvS0_m(ptr noundef %0, ptr noundef %1, i64 noundef %2) #1 comdat {
  %4 = alloca ptr, align 8
  %5 = alloca ptr, align 8
  %6 = alloca i64, align 8
  store ptr %0, ptr %4, align 8
  store ptr %1, ptr %5, align 8
  store i64 %2, ptr %6, align 8
  %7 = load ptr, ptr %4, align 8
  %8 = ptrtoint ptr %7 to i64
  %9 = load ptr, ptr %5, align 8
  %10 = ptrtoint ptr %9 to i64
  %11 = sub i64 %8, %10
  %12 = load i64, ptr %6, align 8
  %13 = udiv i64 %11, %12
  ret i64 %13
}

; Function Attrs: mustprogress nounwind uwtable
define linkonce_odr hidden noundef ptr @_ZNK23JfrVirtualMemorySegment14committed_highEv(ptr noundef nonnull align 8 dereferenceable(184) %0) #1 comdat align 2 {
  %2 = alloca ptr, align 8
  store ptr %0, ptr %2, align 8
  %3 = load ptr, ptr %2, align 8
  %4 = getelementptr inbounds %class.JfrVirtualMemorySegment, ptr %3, i32 0, i32 3
  %5 = call noundef ptr @_ZNK12VirtualSpace4highEv(ptr noundef nonnull align 8 dereferenceable(112) %4)
  ret ptr %5
}

; Function Attrs: mustprogress nounwind uwtable
define linkonce_odr hidden noundef ptr @_ZNK23JfrVirtualMemorySegment13reserved_highEv(ptr noundef nonnull align 8 dereferenceable(184) %0) #1 comdat align 2 {
  %2 = alloca ptr, align 8
  store ptr %0, ptr %2, align 8
  %3 = load ptr, ptr %2, align 8
  %4 = getelementptr inbounds %class.JfrVirtualMemorySegment, ptr %3, i32 0, i32 3
  %5 = call noundef ptr @_ZNK12VirtualSpace13high_boundaryEv(ptr noundef nonnull align 8 dereferenceable(112) %4)
  ret ptr %5
}

; Function Attrs: mustprogress nounwind uwtable
define linkonce_odr hidden void @_ZN23JfrVirtualMemorySegment7inc_topEm(ptr noundef nonnull align 8 dereferenceable(184) %0, i64 noundef %1) #1 comdat align 2 {
  %3 = alloca ptr, align 8
  %4 = alloca i64, align 8
  store ptr %0, ptr %3, align 8
  store i64 %1, ptr %4, align 8
  %5 = load ptr, ptr %3, align 8
  %6 = load i64, ptr %4, align 8
  %7 = mul i64 %6, 8
  %8 = getelementptr inbounds %class.JfrVirtualMemorySegment, ptr %5, i32 0, i32 1
  %9 = load ptr, ptr %8, align 8
  %10 = getelementptr inbounds i8, ptr %9, i64 %7
  store ptr %10, ptr %8, align 8
  ret void
}

; Function Attrs: mustprogress nounwind uwtable
define linkonce_odr hidden noundef ptr @_ZNK23JfrVirtualMemorySegment3topEv(ptr noundef nonnull align 8 dereferenceable(184) %0) #1 comdat align 2 {
  %2 = alloca ptr, align 8
  store ptr %0, ptr %2, align 8
  %3 = load ptr, ptr %2, align 8
  %4 = getelementptr inbounds %class.JfrVirtualMemorySegment, ptr %3, i32 0, i32 1
  %5 = load ptr, ptr %4, align 8
  ret ptr %5
}

; Function Attrs: mustprogress nounwind uwtable
define linkonce_odr hidden noundef zeroext i1 @_ZN23JfrVirtualMemorySegment12is_availableEm(ptr noundef nonnull align 8 dereferenceable(184) %0, i64 noundef %1) #1 comdat align 2 {
  %3 = alloca ptr, align 8
  %4 = alloca i64, align 8
  store ptr %0, ptr %3, align 8
  store i64 %1, ptr %4, align 8
  %5 = load ptr, ptr %3, align 8
  %6 = load i64, ptr %4, align 8
  %7 = call noundef ptr @_ZNK23JfrVirtualMemorySegment14committed_highEv(ptr noundef nonnull align 8 dereferenceable(184) %5)
  %8 = getelementptr inbounds %class.JfrVirtualMemorySegment, ptr %5, i32 0, i32 1
  %9 = load ptr, ptr %8, align 8
  %10 = call noundef i64 @_Z13pointer_deltaPVKvS0_m(ptr noundef %7, ptr noundef %9, i64 noundef 8)
  %11 = icmp ule i64 %6, %10
  ret i1 %11
}

; Function Attrs: mustprogress nounwind uwtable
define linkonce_odr hidden noundef ptr @_ZNK23JfrVirtualMemoryManager14committed_highEv(ptr noundef nonnull align 8 dereferenceable(48) %0) #1 comdat align 2 {
  %2 = alloca ptr, align 8
  store ptr %0, ptr %2, align 8
  %3 = load ptr, ptr %2, align 8
  %4 = getelementptr inbounds %class.JfrVirtualMemoryManager, ptr %3, i32 0, i32 1
  %5 = load ptr, ptr %4, align 8
  %6 = call noundef ptr @_ZNK23JfrVirtualMemorySegment14committed_highEv(ptr noundef nonnull align 8 dereferenceable(184) %5)
  ret ptr %6
}

; Function Attrs: mustprogress nounwind uwtable
define linkonce_odr hidden noundef ptr @_ZNK23JfrVirtualMemoryManager13reserved_highEv(ptr noundef nonnull align 8 dereferenceable(48) %0) #1 comdat align 2 {
  %2 = alloca ptr, align 8
  store ptr %0, ptr %2, align 8
  %3 = load ptr, ptr %2, align 8
  %4 = getelementptr inbounds %class.JfrVirtualMemoryManager, ptr %3, i32 0, i32 1
  %5 = load ptr, ptr %4, align 8
  %6 = call noundef ptr @_ZNK23JfrVirtualMemorySegment13reserved_highEv(ptr noundef nonnull align 8 dereferenceable(184) %5)
  ret ptr %6
}

; Function Attrs: mustprogress nounwind uwtable
define hidden noundef ptr @_ZN23JfrVirtualMemorySegment19take_from_committedEm(ptr noundef nonnull align 8 dereferenceable(184) %0, i64 noundef %1) #1 align 2 {
  %3 = alloca ptr, align 8
  %4 = alloca ptr, align 8
  %5 = alloca i64, align 8
  %6 = alloca ptr, align 8
  store ptr %0, ptr %4, align 8
  store i64 %1, ptr %5, align 8
  %7 = load ptr, ptr %4, align 8
  %8 = load i64, ptr %5, align 8
  %9 = call noundef zeroext i1 @_ZN23JfrVirtualMemorySegment12is_availableEm(ptr noundef nonnull align 8 dereferenceable(184) %7, i64 noundef %8)
  br i1 %9, label %11, label %10

10:                                               ; preds = %2
  store ptr null, ptr %3, align 8
  br label %15

11:                                               ; preds = %2
  %12 = call noundef ptr @_ZNK23JfrVirtualMemorySegment3topEv(ptr noundef nonnull align 8 dereferenceable(184) %7)
  store ptr %12, ptr %6, align 8
  %13 = load i64, ptr %5, align 8
  call void @_ZN23JfrVirtualMemorySegment7inc_topEm(ptr noundef nonnull align 8 dereferenceable(184) %7, i64 noundef %13)
  %14 = load ptr, ptr %6, align 8
  store ptr %14, ptr %3, align 8
  br label %15

15:                                               ; preds = %11, %10
  %16 = load ptr, ptr %3, align 8
  ret ptr %16
}

; Function Attrs: mustprogress nounwind uwtable
define linkonce_odr hidden noundef zeroext i1 @_ZNK23JfrVirtualMemoryManager7is_fullEv(ptr noundef nonnull align 8 dereferenceable(48) %0) #1 comdat align 2 {
  %2 = alloca ptr, align 8
  store ptr %0, ptr %2, align 8
  %3 = load ptr, ptr %2, align 8
  %4 = call noundef ptr @_ZNK23JfrVirtualMemoryManager13reserved_highEv(ptr noundef nonnull align 8 dereferenceable(48) %3)
  %5 = call noundef ptr @_ZNK23JfrVirtualMemoryManager14committed_highEv(ptr noundef nonnull align 8 dereferenceable(48) %3)
  %6 = icmp eq ptr %4, %5
  ret i1 %6
}

; Function Attrs: mustprogress nounwind uwtable
define linkonce_odr hidden noundef ptr @_ZN23JfrVirtualMemorySegment6commitEm(ptr noundef nonnull align 8 dereferenceable(184) %0, i64 noundef %1) #1 comdat align 2 {
  %3 = alloca ptr, align 8
  %4 = alloca i64, align 8
  store ptr %0, ptr %3, align 8
  store i64 %1, ptr %4, align 8
  %5 = load ptr, ptr %3, align 8
  %6 = load i64, ptr %4, align 8
  %7 = call noundef ptr @_ZN23JfrVirtualMemorySegment19take_from_committedEm(ptr noundef nonnull align 8 dereferenceable(184) %5, i64 noundef %6)
  ret ptr %7
}

; Function Attrs: mustprogress nounwind uwtable
define hidden noundef ptr @_ZN23JfrVirtualMemoryManager7currentEv(ptr noundef nonnull align 8 dereferenceable(48) %0) #1 align 2 {
  %2 = alloca ptr, align 8
  store ptr %0, ptr %2, align 8
  %3 = load ptr, ptr %2, align 8
  %4 = getelementptr inbounds %class.JfrVirtualMemoryManager, ptr %3, i32 0, i32 1
  %5 = load ptr, ptr %4, align 8
  ret ptr %5
}

; Function Attrs: mustprogress nounwind uwtable
define hidden noundef ptr @_ZN23JfrVirtualMemoryManager6commitEm(ptr noundef nonnull align 8 dereferenceable(48) %0, i64 noundef %1) #1 align 2 {
  %3 = alloca ptr, align 8
  %4 = alloca ptr, align 8
  %5 = alloca i64, align 8
  %6 = alloca ptr, align 8
  store ptr %0, ptr %4, align 8
  store i64 %1, ptr %5, align 8
  %7 = load ptr, ptr %4, align 8
  %8 = call noundef ptr @_ZN23JfrVirtualMemoryManager7currentEv(ptr noundef nonnull align 8 dereferenceable(48) %7)
  %9 = load i64, ptr %5, align 8
  %10 = call noundef ptr @_ZN23JfrVirtualMemorySegment6commitEm(ptr noundef nonnull align 8 dereferenceable(184) %8, i64 noundef %9)
  store ptr %10, ptr %6, align 8
  %11 = load ptr, ptr %6, align 8
  %12 = icmp ne ptr %11, null
  br i1 %12, label %13, label %15

13:                                               ; preds = %2
  %14 = load ptr, ptr %6, align 8
  store ptr %14, ptr %3, align 8
  br label %29

15:                                               ; preds = %2
  %16 = call noundef zeroext i1 @_ZNK23JfrVirtualMemoryManager7is_fullEv(ptr noundef nonnull align 8 dereferenceable(48) %7)
  br i1 %16, label %17, label %18

17:                                               ; preds = %15
  store ptr null, ptr %3, align 8
  br label %29

18:                                               ; preds = %15
  %19 = load i64, ptr %5, align 8
  %20 = getelementptr inbounds %class.JfrVirtualMemoryManager, ptr %7, i32 0, i32 2
  %21 = load i64, ptr %20, align 8
  %22 = call noundef zeroext i1 @_ZN23JfrVirtualMemoryManager9expand_byEmm(ptr noundef nonnull align 8 dereferenceable(48) %7, i64 noundef %19, i64 noundef %21)
  br i1 %22, label %23, label %27

23:                                               ; preds = %18
  %24 = call noundef ptr @_ZN23JfrVirtualMemoryManager7currentEv(ptr noundef nonnull align 8 dereferenceable(48) %7)
  %25 = load i64, ptr %5, align 8
  %26 = call noundef ptr @_ZN23JfrVirtualMemorySegment6commitEm(ptr noundef nonnull align 8 dereferenceable(184) %24, i64 noundef %25)
  store ptr %26, ptr %6, align 8
  br label %27

27:                                               ; preds = %23, %18
  %28 = load ptr, ptr %6, align 8
  store ptr %28, ptr %3, align 8
  br label %29

29:                                               ; preds = %27, %17, %13
  %30 = load ptr, ptr %3, align 8
  ret ptr %30
}

; Function Attrs: mustprogress nounwind uwtable
define hidden noundef ptr @_ZN16JfrVirtualMemory6commitEm(ptr noundef nonnull align 8 dereferenceable(56) %0, i64 noundef %1) #1 align 2 {
  %3 = alloca ptr, align 8
  %4 = alloca i64, align 8
  store ptr %0, ptr %3, align 8
  store i64 %1, ptr %4, align 8
  %5 = load ptr, ptr %3, align 8
  %6 = getelementptr inbounds %class.JfrVirtualMemory, ptr %5, i32 0, i32 0
  %7 = load ptr, ptr %6, align 8
  %8 = load i64, ptr %4, align 8
  %9 = call noundef ptr @_ZN23JfrVirtualMemoryManager6commitEm(ptr noundef nonnull align 8 dereferenceable(48) %7, i64 noundef %8)
  ret ptr %9
}