; Function Attrs: mustprogress nounwind uwtable
define hidden noundef ptr @_ZN16JfrVirtualMemory6commitEm(ptr nocapture noundef nonnull readonly align 8 dereferenceable(56) %0, i64 noundef %1) local_unnamed_addr #0 align 2 {
  %3 = load ptr, ptr %0, align 8
  %4 = getelementptr inbounds i8, ptr %3, i64 8
  %5 = load ptr, ptr %4, align 8
  %6 = getelementptr inbounds i8, ptr %5, i64 96
  %7 = load ptr, ptr %6, align 8
  %8 = getelementptr inbounds i8, ptr %5, i64 8
  %9 = load ptr, ptr %8, align 8
  %10 = ptrtoint ptr %7 to i64
  %11 = ptrtoint ptr %9 to i64
  %12 = sub i64 %10, %11
  %13 = lshr i64 %12, 3
  %.not.i.i.i = icmp ult i64 %13, %1
  br i1 %.not.i.i.i, label %_ZN23JfrVirtualMemorySegment6commitEm.exit.thread.i, label %_ZN23JfrVirtualMemorySegment6commitEm.exit.i

_ZN23JfrVirtualMemorySegment6commitEm.exit.i:     ; preds = %2
  %14 = shl nuw i64 %1, 3
  %15 = getelementptr inbounds i8, ptr %9, i64 %14
  store ptr %15, ptr %8, align 8
  %.not.i = icmp eq ptr %9, null
  br i1 %.not.i, label %_ZN23JfrVirtualMemorySegment6commitEm.exit._ZN23JfrVirtualMemorySegment6commitEm.exit.thread_crit_edge.i, label %_ZN23JfrVirtualMemoryManager6commitEm.exit

_ZN23JfrVirtualMemorySegment6commitEm.exit._ZN23JfrVirtualMemorySegment6commitEm.exit.thread_crit_edge.i: ; preds = %_ZN23JfrVirtualMemorySegment6commitEm.exit.i
  %.pre.i = load ptr, ptr %4, align 8
  %.phi.trans.insert.i = getelementptr inbounds i8, ptr %.pre.i, i64 96
  %.pre14.i = load ptr, ptr %.phi.trans.insert.i, align 8
  br label %_ZN23JfrVirtualMemorySegment6commitEm.exit.thread.i

_ZN23JfrVirtualMemorySegment6commitEm.exit.thread.i: ; preds = %_ZN23JfrVirtualMemorySegment6commitEm.exit._ZN23JfrVirtualMemorySegment6commitEm.exit.thread_crit_edge.i, %2
  %16 = phi ptr [ %.pre14.i, %_ZN23JfrVirtualMemorySegment6commitEm.exit._ZN23JfrVirtualMemorySegment6commitEm.exit.thread_crit_edge.i ], [ %7, %2 ]
  %17 = phi ptr [ %.pre.i, %_ZN23JfrVirtualMemorySegment6commitEm.exit._ZN23JfrVirtualMemorySegment6commitEm.exit.thread_crit_edge.i ], [ %5, %2 ]
  %18 = getelementptr inbounds i8, ptr %17, i64 80
  %19 = load ptr, ptr %18, align 8
  %20 = icmp eq ptr %19, %16
  br i1 %20, label %_ZN23JfrVirtualMemoryManager6commitEm.exit, label %21

21:                                               ; preds = %_ZN23JfrVirtualMemorySegment6commitEm.exit.thread.i
  %22 = getelementptr inbounds i8, ptr %3, i64 16
  %23 = load i64, ptr %22, align 8
  %24 = tail call noundef zeroext i1 @_ZN23JfrVirtualMemoryManager9expand_byEmm(ptr noundef nonnull align 8 dereferenceable(48) %3, i64 noundef %1, i64 noundef %23)
  br i1 %24, label %25, label %_ZN23JfrVirtualMemoryManager6commitEm.exit

25:                                               ; preds = %21
  %26 = load ptr, ptr %4, align 8
  %27 = getelementptr inbounds i8, ptr %26, i64 96
  %28 = load ptr, ptr %27, align 8
  %29 = getelementptr inbounds i8, ptr %26, i64 8
  %30 = load ptr, ptr %29, align 8
  %31 = ptrtoint ptr %28 to i64
  %32 = ptrtoint ptr %30 to i64
  %33 = sub i64 %31, %32
  %34 = lshr i64 %33, 3
  %.not.i.i9.i = icmp ult i64 %34, %1
  br i1 %.not.i.i9.i, label %_ZN23JfrVirtualMemoryManager6commitEm.exit, label %35

35:                                               ; preds = %25
  %36 = shl nuw i64 %1, 3
  %37 = getelementptr inbounds i8, ptr %30, i64 %36
  store ptr %37, ptr %29, align 8
  br label %_ZN23JfrVirtualMemoryManager6commitEm.exit

_ZN23JfrVirtualMemoryManager6commitEm.exit:       ; preds = %_ZN23JfrVirtualMemorySegment6commitEm.exit.i, %_ZN23JfrVirtualMemorySegment6commitEm.exit.thread.i, %21, %25, %35
  %.07.i = phi ptr [ %9, %_ZN23JfrVirtualMemorySegment6commitEm.exit.i ], [ null, %_ZN23JfrVirtualMemorySegment6commitEm.exit.thread.i ], [ null, %21 ], [ %30, %35 ], [ null, %25 ]
  ret ptr %.07.i
}